; Function Attrs: nounwind uwtable
define hidden void @zim_Generator_getReturn(ptr noundef readonly captures(none) %0, ptr noundef writeonly captures(none) %1) #0 {
  %3 = getelementptr inbounds nuw i8, ptr %0, i64 44
  %4 = load i32, ptr %3, align 4, !tbaa !24
  %.not = icmp eq i32 %4, 0
  br i1 %.not, label %6, label %5, !prof !58

5:                                                ; preds = %2
  tail call void @zend_wrong_parameters_none_error() #11
  br label %39

6:                                                ; preds = %2
  %7 = getelementptr inbounds nuw i8, ptr %0, i64 32
  %8 = load ptr, ptr %7, align 8, !tbaa !24
  %9 = getelementptr inbounds nuw i8, ptr %8, i64 80
  %10 = load i8, ptr %9, align 8, !tbaa !24
  %11 = icmp eq i8 %10, 0
  br i1 %11, label %12, label %zend_generator_ensure_initialized.exit, !prof !26

12:                                               ; preds = %6
  %13 = getelementptr inbounds nuw i8, ptr %8, i64 56
  %14 = load ptr, ptr %13, align 8, !tbaa !56
  %.not.i = icmp eq ptr %14, null
  br i1 %.not.i, label %zend_generator_ensure_initialized.exit, label %15, !prof !26

15:                                               ; preds = %12
  %16 = getelementptr inbounds nuw i8, ptr %8, i64 152
  %17 = load ptr, ptr %16, align 8, !tbaa !94
  %18 = icmp eq ptr %17, null
  br i1 %18, label %19, label %zend_generator_ensure_initialized.exit, !prof !58

19:                                               ; preds = %15
  tail call void @zend_generator_resume(ptr noundef nonnull %8)
  %20 = getelementptr inbounds nuw i8, ptr %8, i64 272
  %21 = load i8, ptr %20, align 8, !tbaa !99
  %22 = or i8 %21, 4
  store i8 %22, ptr %20, align 8, !tbaa !99
  br label %zend_generator_ensure_initialized.exit

zend_generator_ensure_initialized.exit:           ; preds = %6, %12, %15, %19
  %23 = load ptr, ptr getelementptr inbounds nuw (i8, ptr @executor_globals, i64 960), align 8, !tbaa !102
  %.not13 = icmp eq ptr %23, null
  br i1 %.not13, label %24, label %39, !prof !58

24:                                               ; preds = %zend_generator_ensure_initialized.exit
  %25 = getelementptr inbounds nuw i8, ptr %8, i64 112
  %26 = load i8, ptr %25, align 8, !tbaa !24
  %27 = icmp eq i8 %26, 0
  br i1 %27, label %28, label %30

28:                                               ; preds = %24
  %29 = tail call ptr @zend_throw_exception(ptr noundef null, ptr noundef nonnull @.str.5, i64 noundef 0) #11
  br label %39

30:                                               ; preds = %24
  %31 = getelementptr inbounds nuw i8, ptr %8, i64 104
  %32 = load ptr, ptr %31, align 8, !tbaa !24
  %33 = load i32, ptr %25, align 8, !tbaa !24
  store ptr %32, ptr %1, align 8, !tbaa !24
  %34 = getelementptr inbounds nuw i8, ptr %1, i64 8
  store i32 %33, ptr %34, align 8, !tbaa !24
  %35 = and i32 %33, 65280
  %.not14 = icmp eq i32 %35, 0
  br i1 %.not14, label %39, label %36

36:                                               ; preds = %30
  %37 = load i32, ptr %32, align 4, !tbaa !65
  %38 = add i32 %37, 1
  store i32 %38, ptr %32, align 4, !tbaa !65
  br label %39

39:                                               ; preds = %30, %36, %zend_generator_ensure_initialized.exit, %28, %5
  ret void
}